
Memory Configuration

Name             Origin             Length             Attributes
*default*        0x0000000000000000 0xffffffffffffffff

Linker script and memory map

                0x0000000040090000                . = 0x40090000
                0x0000000040090000                . = ALIGN (0x4)

.text           0x0000000040090000     0x3598
 *(.text)
 .text          0x0000000040090000      0x100 mmu_on_entry.o
                0x0000000040090000                _mmu_on_entry
                0x00000000400900a0                mmu_restore
 .text          0x0000000040090100      0x3d0 lib1funcs.o
                0x0000000040090100                __udivsi3
                0x0000000040090100                __aeabi_uidiv
                0x00000000400901e8                __umodsi3
                0x00000000400902a4                __aeabi_idiv
                0x00000000400902a4                __divsi3
                0x00000000400903bc                __modsi3
                0x0000000040090490                __aeabi_uidivmod
                0x00000000400904a8                __aeabi_idivmod
 *fill*         0x00000000400904d0       0x10 
 .text          0x00000000400904e0      0x820 mmu_on_main.o
                0x00000000400904e0                coprocessor_restore
                0x00000000400905e0                force_mmu_off
                0x000000004009060c                zb_read_zbi_header
                0x0000000040090790                zb_copy_data1
                0x0000000040090808                zb_copy_data
                0x00000000400908f0                __m2n_set_nand_page
                0x0000000040090910                zb_preload_all
                0x0000000040090a70                coprocessor_restore_new
                0x0000000040090b68                zeroboot
 .text          0x0000000040090d00      0x178 uart.o
                0x0000000040090d00                mmu_delay
                0x0000000040090d04                uart_init
                0x0000000040090d08                uart_putc
                0x0000000040090d28                uart_puts
                0x0000000040090d80                uart_read_ok
                0x0000000040090d94                uart_getc
                0x0000000040090da8                uart_put_hex_nibble
                0x0000000040090df8                uart_put_hex_byte
                0x0000000040090e14                uart_put_hex
                0x0000000040090e4c                uart_put_hex_raw
 .text          0x0000000040090e78      0x810 vsprintf.o
                0x0000000040091164                vsprintf
                0x0000000040091668                sprintf
 .text          0x0000000040091688      0x9ec string.o
                0x0000000040091688                strnicmp
                0x000000004009171c                strcpy
                0x0000000040091734                strncpy
                0x0000000040091758                strcat
                0x0000000040091798                strncat
                0x0000000040091808                strcmp
                0x000000004009183c                strncmp
                0x00000000400918c4                strchr
                0x0000000040091910                strlen
                0x0000000040091944                strrchr
                0x00000000400919a4                strnlen
                0x0000000040091a0c                strspn
                0x0000000040091a80                strpbrk
                0x0000000040091ad8                strtok
                0x0000000040091bf8                strsep
                0x0000000040091c74                memset
                0x0000000040091c98                bcopy
                0x0000000040091ccc                memcpy
                0x0000000040091cf0                memmove
                0x0000000040091d48                memcmp
                0x0000000040091db8                memscan
                0x0000000040091df8                strstr
                0x0000000040091ec4                memchr
                0x0000000040091ef4                upper_str
                0x0000000040091f30                lower_str
                0x0000000040091f6c                strtoul
 .text          0x0000000040092074       0xac printf.o
                0x0000000040092074                putc
                0x00000000400920a0                puts
                0x00000000400920cc                printf
 .text          0x0000000040092120     0x1478 /home/swpark/disk3/lollipop-avn-4418/linux/platform/s5p4418/modules/zeroboot/drv_storage/arch_nxp/nalcode_mmc_storage_dw.o
                0x0000000040092a08                v7_outer_cache_flush_all
                0x0000000040092a0c                flush_dcache_all
                0x0000000040092a14                v7_outer_cache_inval_range
                0x0000000040092a18                v7_outer_cache_flush_range
                0x0000000040092a1c                v7_outer_cache_inval_all
                0x0000000040092a20                invalidate_dcache_range
                0x0000000040092a48                flush_dcache_range
                0x0000000040092a88                invalidate_dcache_all
                0x0000000040092a90                dummy_break0
                0x0000000040092a94                dummy_break1
                0x0000000040092a98                dummy_break2
                0x0000000040092aa4                mmc_set_clock
                0x0000000040092aac                mmc_send_op_cond
                0x0000000040092b80                mmc_complete_op_cond
                0x0000000040092c1c                mmc_start_init
                0x0000000040092c58                mmc_card_bringup
                0x0000000040092f04                dma_read_dirty
                0x0000000040092f6c                get_zb_mmc_info
                0x0000000040092fe4                nalcode_storage_first_call
                0x0000000040093100                nalcode_stroage_read_4k_page
                0x000000004009347c                nalcode_stroage_test_function
                0x0000000040093480                zb_init_dma_list
                0x00000000400934a8                zb_add_dma_list
                0x000000004009350c                zb_request_dma_transfer

.glue_7         0x0000000040093598        0x0
 .glue_7        0x0000000000000000        0x0 linker stubs

.glue_7t        0x0000000040093598        0x0
 .glue_7t       0x0000000000000000        0x0 linker stubs

.vfp11_veneer   0x0000000040093598        0x0
 .vfp11_veneer  0x0000000000000000        0x0 linker stubs

.v4_bx          0x0000000040093598        0x0
 .v4_bx         0x0000000000000000        0x0 linker stubs

.iplt           0x0000000040093598        0x0
 .iplt          0x0000000000000000        0x0 mmu_on_entry.o

.rel.dyn        0x0000000040093598        0x0
 .rel.iplt      0x0000000000000000        0x0 mmu_on_entry.o
                0x0000000040093598                . = ALIGN (0x4)

.rodata
 *(.rodata)

.rodata.str1.4  0x0000000040093598      0x6b8
 .rodata.str1.4
                0x0000000040093598      0x249 mmu_on_main.o
                                        0x250 (size before relaxing)
 .rodata.str1.4
                0x0000000000000000        0x4 uart.o
 *fill*         0x00000000400937e1        0x3 
 .rodata.str1.4
                0x00000000400937e4       0x57 vsprintf.o
                                         0x58 (size before relaxing)
 *fill*         0x000000004009383b        0x1 
 .rodata.str1.4
                0x000000004009383c      0x414 /home/swpark/disk3/lollipop-avn-4418/linux/platform/s5p4418/modules/zeroboot/drv_storage/arch_nxp/nalcode_mmc_storage_dw.o
                                        0x418 (size before relaxing)
                0x0000000040093c50                . = ALIGN (0x4)

.data           0x0000000040093c50      0x110
 *(.data)
 .data          0x0000000040093c50        0x0 mmu_on_entry.o
 .data          0x0000000040093c50        0x0 lib1funcs.o
 .data          0x0000000040093c50        0x4 mmu_on_main.o
                0x0000000040093c50                zbi
 .data          0x0000000040093c54        0x0 uart.o
 .data          0x0000000040093c54        0x0 vsprintf.o
 .data          0x0000000040093c54      0x100 string.o
                0x0000000040093c54                _ctype
 .data          0x0000000040093d54        0x0 printf.o
 .data          0x0000000040093d54        0xc /home/swpark/disk3/lollipop-avn-4418/linux/platform/s5p4418/modules/zeroboot/drv_storage/arch_nxp/nalcode_mmc_storage_dw.o
                0x0000000040093d54                collision_flag
                0x0000000040093d58                dw_mmc_start_block_index
                0x0000000040093d5c                dw_mmc_dma_addr_count

.igot.plt       0x0000000040093d60        0x0
 .igot.plt      0x0000000000000000        0x0 mmu_on_entry.o
                0x0000000040093d60                . = ALIGN (0x4)

.got
 *(.got)
                0x0000000040093d60                . = ALIGN (0x4)
                0x0000000040093d60                _bss_start = .
                0x0000000040093d60                . = ALIGN (0x4)

.bss            0x0000000040093d60     0x22f4
 *(.bss)
 .bss           0x0000000040093d60        0x0 mmu_on_entry.o
 .bss           0x0000000040093d60        0x0 lib1funcs.o
 .bss           0x0000000040093d60        0x0 mmu_on_main.o
 .bss           0x0000000040093d60        0x0 uart.o
 .bss           0x0000000040093d60        0x0 vsprintf.o
 .bss           0x0000000040093d60        0x4 string.o
                0x0000000040093d60                ___strtok
 .bss           0x0000000040093d64        0x0 printf.o
 .bss           0x0000000040093d64     0x22f0 /home/swpark/disk3/lollipop-avn-4418/linux/platform/s5p4418/modules/zeroboot/drv_storage/arch_nxp/nalcode_mmc_storage_dw.o
                0x0000000040093d64                dw_mmc_dma_addr_list
                0x0000000040095d64                mmc_dirtry_check_regs_zero
                0x0000000040095d9c                mmc_dirtry_check_regs_cur
                0x0000000040095dd4                zb_mmc
                0x0000000040095dd8                zero_mmc
                0x000000004009601c                mmc_backup_regs
                0x0000000040096054                . = ALIGN (0x4)
                0x0000000040096054                _bss_end = .
LOAD mmu_on_entry.o
LOAD lib1funcs.o
LOAD mmu_on_main.o
LOAD uart.o
LOAD vsprintf.o
LOAD string.o
LOAD printf.o
LOAD /home/swpark/disk3/lollipop-avn-4418/linux/platform/s5p4418/modules/zeroboot/drv_storage/arch_nxp/nalcode_mmc_storage_dw.o
OUTPUT(mmu_turnon.elf32 elf32-littlearm)

.ARM.attributes
                0x0000000000000000       0x2d
 .ARM.attributes
                0x0000000000000000       0x1f mmu_on_entry.o
 .ARM.attributes
                0x000000000000001f       0x1f lib1funcs.o
 .ARM.attributes
                0x000000000000003e       0x2f mmu_on_main.o
 .ARM.attributes
                0x000000000000006d       0x2f uart.o
 .ARM.attributes
                0x000000000000009c       0x2f vsprintf.o
 .ARM.attributes
                0x00000000000000cb       0x2f string.o
 .ARM.attributes
                0x00000000000000fa       0x2f printf.o
 .ARM.attributes
                0x0000000000000129       0x2f /home/swpark/disk3/lollipop-avn-4418/linux/platform/s5p4418/modules/zeroboot/drv_storage/arch_nxp/nalcode_mmc_storage_dw.o

.comment        0x0000000000000000        0xf
 .comment       0x0000000000000000        0xf mmu_on_main.o
                                         0x10 (size before relaxing)
 .comment       0x0000000000000000       0x10 uart.o
 .comment       0x0000000000000000       0x10 vsprintf.o
 .comment       0x0000000000000000       0x10 string.o
 .comment       0x0000000000000000       0x10 printf.o
 .comment       0x0000000000000000       0x10 /home/swpark/disk3/lollipop-avn-4418/linux/platform/s5p4418/modules/zeroboot/drv_storage/arch_nxp/nalcode_mmc_storage_dw.o
